target datalayout = "e-m:e-p270:32:32-p271:32:32-p272:64:64-i64:64-i128:128-f80:128-n8:16:32:64-S128"
target triple = "x86_64-pc-linux-gnu"

@.str.23 = private unnamed_addr constant [3 x i8] c"on\00", align 1
@.str.25 = private unnamed_addr constant [7 x i8] c"nopass\00", align 1
@.str.45 = private unnamed_addr constant [6 x i8] c"+@all\00", align 1
@.str.61 = private unnamed_addr constant [3 x i8] c"~*\00", align 1
@.str.63 = private unnamed_addr constant [3 x i8] c"&*\00", align 1
@.str.88 = private unnamed_addr constant [8 x i8] c"default\00", align 1

; Function Attrs: nounwind uwtable
define dso_local ptr @ACLCreateDefaultUser() #0 {
  %1 = alloca ptr, align 8
  call void @llvm.lifetime.start.p0(i64 8, ptr %1) #14
  %2 = call ptr @ACLCreateUser(ptr noundef @.str.88, i64 noundef 7)
  store ptr %2, ptr %1, align 8, !tbaa !32
  %3 = load ptr, ptr %1, align 8, !tbaa !32
  %4 = call i32 @ACLSetUser(ptr noundef %3, ptr noundef @.str.45, i64 noundef -1)
  %5 = load ptr, ptr %1, align 8, !tbaa !32
  %6 = call i32 @ACLSetUser(ptr noundef %5, ptr noundef @.str.61, i64 noundef -1)
  %7 = load ptr, ptr %1, align 8, !tbaa !32
  %8 = call i32 @ACLSetUser(ptr noundef %7, ptr noundef @.str.63, i64 noundef -1)
  %9 = load ptr, ptr %1, align 8, !tbaa !32
  %10 = call i32 @ACLSetUser(ptr noundef %9, ptr noundef @.str.23, i64 noundef -1)
  %11 = load ptr, ptr %1, align 8, !tbaa !32
  %12 = call i32 @ACLSetUser(ptr noundef %11, ptr noundef @.str.25, i64 noundef -1)
  %13 = load ptr, ptr %1, align 8, !tbaa !32
  call void @llvm.lifetime.end.p0(i64 8, ptr %1) #14
  ret ptr %13
}