; Function Attrs: nounwind uwtable
define dso_local noundef ptr @ACLCreateDefaultUser() local_unnamed_addr #0 {
  %1 = tail call ptr @ACLCreateUser(ptr noundef nonnull @.str.88, i64 noundef 7)
  %2 = tail call i32 @ACLSetUser(ptr noundef %1, ptr noundef nonnull @.str.45, i64 noundef -1)
  %3 = tail call i32 @ACLSetUser(ptr noundef %1, ptr noundef nonnull @.str.61, i64 noundef -1)
  %4 = tail call i32 @ACLSetUser(ptr noundef %1, ptr noundef nonnull @.str.63, i64 noundef -1)
  %5 = tail call i32 @ACLSetUser(ptr noundef %1, ptr noundef nonnull @.str.23, i64 noundef -1)
  %6 = tail call i32 @ACLSetUser(ptr noundef %1, ptr noundef nonnull @.str.25, i64 noundef -1)
  ret ptr %1
}